target datalayout = "e-m:e-p270:32:32-p271:32:32-p272:64:64-i64:64-i128:128-f80:128-n8:16:32:64-S128"
target triple = "x86_64-pc-linux-gnu"

%struct.ARKodeMemRec = type { ptr, double, ptr, i32, i32, double, double, ptr, i32, double, ptr, i32, i32, ptr, ptr, i32, ptr, ptr, i32, ptr, ptr, ptr, ptr, ptr, ptr, ptr, ptr, ptr, ptr, ptr, ptr, ptr, ptr, ptr, i32, ptr, ptr, i32, ptr, i32, ptr, ptr, ptr, ptr, ptr, ptr, ptr, ptr, ptr, ptr, ptr, ptr, ptr, ptr, ptr, ptr, ptr, ptr, ptr, ptr, ptr, ptr, ptr, ptr, ptr, ptr, i32, ptr, ptr, ptr, ptr, ptr, ptr, ptr, i32, ptr, ptr, ptr, i32, ptr, ptr, ptr, ptr, ptr, ptr, ptr, i32, i32, i32, i32, double, double, double, double, double, double, double, double, double, double, i32, ptr, i64, i32, i32, i32, i32, i64, i64, i32, i64, i64, i64, i64, i64, i64, i64, double, double, double, double, double, i32, double, double, i32, i32, i32, i32, i32, i32, i32, i32, ptr, i32, ptr, ptr, ptr, ptr, i32, i32, i32 }
%struct.ARKodeLSRKStepMemRec = type { ptr, ptr, i32, i32, i32, i32, i64, i64, i32, i32, i64, i64, double, double, double, double, double, double, i64, i32, i32, i32, i32, ptr, ptr, i32 }

; Function Attrs: nounwind uwtable
define void @lsrkStep_DomEigUpdateLogic(ptr noundef %0, ptr noundef %1, double noundef %2) #0 {
  %4 = alloca ptr, align 8
  %5 = alloca ptr, align 8
  %6 = alloca double, align 8
  store ptr %0, ptr %4, align 8, !tbaa !13
  store ptr %1, ptr %5, align 8, !tbaa !17
  store double %2, ptr %6, align 8, !tbaa !7
  %7 = load double, ptr %6, align 8, !tbaa !7
  %8 = fcmp ole double %7, 1.000000e+00
  br i1 %8, label %9, label %49

9:                                                ; preds = %3
  %10 = load ptr, ptr %4, align 8, !tbaa !13
  %11 = getelementptr inbounds nuw %struct.ARKodeMemRec, ptr %10, i32 0, i32 80
  %12 = load ptr, ptr %11, align 8, !tbaa !96
  %13 = load ptr, ptr %4, align 8, !tbaa !13
  %14 = getelementptr inbounds nuw %struct.ARKodeMemRec, ptr %13, i32 0, i32 77
  %15 = load ptr, ptr %14, align 8, !tbaa !76
  call void @N_VScale(double noundef 1.000000e+00, ptr noundef %12, ptr noundef %15)
  %16 = load ptr, ptr %4, align 8, !tbaa !13
  %17 = getelementptr inbounds nuw %struct.ARKodeMemRec, ptr %16, i32 0, i32 78
  store i32 1, ptr %17, align 8, !tbaa !74
  %18 = load ptr, ptr %5, align 8, !tbaa !17
  %19 = getelementptr inbounds nuw %struct.ARKodeLSRKStepMemRec, ptr %18, i32 0, i32 20
  %20 = load i32, ptr %19, align 4, !tbaa !117
  %21 = icmp eq i32 %20, 1
  %22 = zext i1 %21 to i32
  %23 = load ptr, ptr %5, align 8, !tbaa !17
  %24 = getelementptr inbounds nuw %struct.ARKodeLSRKStepMemRec, ptr %23, i32 0, i32 21
  store i32 %22, ptr %24, align 8, !tbaa !56
  %25 = load ptr, ptr %5, align 8, !tbaa !17
  %26 = getelementptr inbounds nuw %struct.ARKodeLSRKStepMemRec, ptr %25, i32 0, i32 19
  store i32 0, ptr %26, align 8, !tbaa !55
  %27 = load ptr, ptr %4, align 8, !tbaa !13
  %28 = getelementptr inbounds nuw %struct.ARKodeMemRec, ptr %27, i32 0, i32 108
  %29 = load i64, ptr %28, align 8, !tbaa !92
  %30 = add nsw i64 %29, 1
  %31 = load ptr, ptr %5, align 8, !tbaa !17
  %32 = getelementptr inbounds nuw %struct.ARKodeLSRKStepMemRec, ptr %31, i32 0, i32 10
  %33 = load i64, ptr %32, align 8, !tbaa !46
  %34 = load ptr, ptr %5, align 8, !tbaa !17
  %35 = getelementptr inbounds nuw %struct.ARKodeLSRKStepMemRec, ptr %34, i32 0, i32 18
  %36 = load i64, ptr %35, align 8, !tbaa !106
  %37 = add nsw i64 %33, %36
  %38 = icmp sge i64 %30, %37
  br i1 %38, label %39, label %48

39:                                               ; preds = %9
  %40 = load ptr, ptr %5, align 8, !tbaa !17
  %41 = getelementptr inbounds nuw %struct.ARKodeLSRKStepMemRec, ptr %40, i32 0, i32 21
  %42 = load i32, ptr %41, align 8, !tbaa !56
  %43 = icmp ne i32 %42, 0
  %44 = xor i1 %43, true
  %45 = zext i1 %44 to i32
  %46 = load ptr, ptr %5, align 8, !tbaa !17
  %47 = getelementptr inbounds nuw %struct.ARKodeLSRKStepMemRec, ptr %46, i32 0, i32 19
  store i32 %45, ptr %47, align 8, !tbaa !55
  br label %48

48:                                               ; preds = %39, %9
  br label %58

49:                                               ; preds = %3
  %50 = load ptr, ptr %5, align 8, !tbaa !17
  %51 = getelementptr inbounds nuw %struct.ARKodeLSRKStepMemRec, ptr %50, i32 0, i32 21
  %52 = load i32, ptr %51, align 8, !tbaa !56
  %53 = icmp ne i32 %52, 0
  %54 = xor i1 %53, true
  %55 = zext i1 %54 to i32
  %56 = load ptr, ptr %5, align 8, !tbaa !17
  %57 = getelementptr inbounds nuw %struct.ARKodeLSRKStepMemRec, ptr %56, i32 0, i32 19
  store i32 %55, ptr %57, align 8, !tbaa !55
  br label %58

58:                                               ; preds = %49, %48
  ret void
}