; Function Attrs: nounwind uwtable
define void @lsrkStep_DomEigUpdateLogic(ptr noundef captures(none) %0, ptr noundef captures(none) initializes((128, 132)) %1, double noundef %2) local_unnamed_addr #0 {
  %4 = fcmp ugt double %2, 1.000000e+00
  br i1 %4, label %27, label %5

5:                                                ; preds = %3
  %6 = getelementptr inbounds nuw i8, ptr %0, i64 624
  %7 = load ptr, ptr %6, align 8, !tbaa !84
  %8 = getelementptr inbounds nuw i8, ptr %0, i64 600
  %9 = load ptr, ptr %8, align 8, !tbaa !65
  tail call void @N_VScale(double noundef 1.000000e+00, ptr noundef %7, ptr noundef %9) #13
  %10 = getelementptr inbounds nuw i8, ptr %0, i64 608
  store i32 1, ptr %10, align 8, !tbaa !62
  %11 = getelementptr inbounds nuw i8, ptr %1, i64 132
  %12 = load i32, ptr %11, align 4, !tbaa !103
  %13 = icmp eq i32 %12, 1
  %14 = zext i1 %13 to i32
  %15 = getelementptr inbounds nuw i8, ptr %1, i64 136
  store i32 %14, ptr %15, align 8, !tbaa !55
  %16 = getelementptr inbounds nuw i8, ptr %1, i64 128
  store i32 0, ptr %16, align 8, !tbaa !54
  %17 = getelementptr inbounds nuw i8, ptr %0, i64 816
  %18 = load i64, ptr %17, align 8, !tbaa !80
  %19 = add nsw i64 %18, 1
  %20 = getelementptr inbounds nuw i8, ptr %1, i64 56
  %21 = load i64, ptr %20, align 8, !tbaa !52
  %22 = getelementptr inbounds nuw i8, ptr %1, i64 120
  %23 = load i64, ptr %22, align 8, !tbaa !93
  %24 = add nsw i64 %23, %21
  %.not14 = icmp slt i64 %19, %24
  br i1 %.not14, label %32, label %25

25:                                               ; preds = %5
  %.not15 = xor i1 %13, true
  %26 = zext i1 %.not15 to i32
  store i32 %26, ptr %16, align 8, !tbaa !54
  br label %32

27:                                               ; preds = %3
  %28 = getelementptr inbounds nuw i8, ptr %1, i64 136
  %29 = load i32, ptr %28, align 8, !tbaa !55
  %.not = icmp eq i32 %29, 0
  %30 = zext i1 %.not to i32
  %31 = getelementptr inbounds nuw i8, ptr %1, i64 128
  store i32 %30, ptr %31, align 8, !tbaa !54
  br label %32

32:                                               ; preds = %5, %25, %27
  ret void
}